target datalayout = "e-m:e-p270:32:32-p271:32:32-p272:64:64-i64:64-i128:128-f80:128-n8:16:32:64-S128"
target triple = "x86_64-pc-linux-gnu"

@.str.14 = private unnamed_addr constant [30 x i8] c"../openssl/test/ocspapitest.c\00", align 1
@.str.21 = private unnamed_addr constant [3 x i8] c"bs\00", align 1
@__const.make_dummy_resp.namestr = private unnamed_addr constant [20 x i8] c"openssl.example.com\00", align 16
@.str.31 = private unnamed_addr constant [5 x i8] c"name\00", align 1
@.str.32 = private unnamed_addr constant [4 x i8] c"key\00", align 1
@.str.33 = private unnamed_addr constant [7 x i8] c"serial\00", align 1
@.str.34 = private unnamed_addr constant [83 x i8] c"X509_NAME_add_entry_by_NID(name, NID_commonName, MBSTRING_ASC, namestr, -1, -1, 1)\00", align 1
@.str.35 = private unnamed_addr constant [53 x i8] c"ASN1_BIT_STRING_set(key, keybytes, sizeof(keybytes))\00", align 1
@.str.36 = private unnamed_addr constant [45 x i8] c"ASN1_INTEGER_set_uint64(serial, (uint64_t)1)\00", align 1
@.str.37 = private unnamed_addr constant [8 x i8] c"thisupd\00", align 1
@.str.38 = private unnamed_addr constant [8 x i8] c"nextupd\00", align 1
@.str.39 = private unnamed_addr constant [4 x i8] c"cid\00", align 1
@.str.40 = private unnamed_addr constant [86 x i8] c"OCSP_basic_add1_status(bs, cid, V_OCSP_CERTSTATUS_UNKNOWN, 0, NULL, thisupd, nextupd)\00", align 1

; Function Attrs: nounwind uwtable
define internal ptr @make_dummy_resp() #0 {
  %1 = alloca [20 x i8], align 16
  %2 = alloca [128 x i8], align 16
  %3 = alloca ptr, align 8
  %4 = alloca ptr, align 8
  %5 = alloca ptr, align 8
  %6 = alloca ptr, align 8
  %7 = alloca ptr, align 8
  %8 = alloca ptr, align 8
  %9 = alloca ptr, align 8
  %10 = alloca ptr, align 8
  call void @llvm.lifetime.start.p0(i64 20, ptr %1) #7
  call void @llvm.memcpy.p0.p0.i64(ptr align 16 %1, ptr align 16 @__const.make_dummy_resp.namestr, i64 20, i1 false)
  call void @llvm.lifetime.start.p0(i64 128, ptr %2) #7
  call void @llvm.memset.p0.i64(ptr align 16 %2, i8 0, i64 128, i1 false)
  %11 = getelementptr inbounds <{ i8, [127 x i8] }>, ptr %2, i32 0, i32 0
  store i8 7, ptr %11, align 16
  call void @llvm.lifetime.start.p0(i64 8, ptr %3) #7
  %12 = call ptr @OCSP_BASICRESP_new()
  store ptr %12, ptr %3, align 8, !tbaa !9
  call void @llvm.lifetime.start.p0(i64 8, ptr %4) #7
  store ptr null, ptr %4, align 8, !tbaa !9
  call void @llvm.lifetime.start.p0(i64 8, ptr %5) #7
  store ptr null, ptr %5, align 8, !tbaa !27
  call void @llvm.lifetime.start.p0(i64 8, ptr %6) #7
  %13 = call i64 @time(ptr noundef null) #7
  %14 = call ptr @ASN1_TIME_set(ptr noundef null, i64 noundef %13)
  store ptr %14, ptr %6, align 8, !tbaa !29
  call void @llvm.lifetime.start.p0(i64 8, ptr %7) #7
  %15 = call i64 @time(ptr noundef null) #7
  %16 = add nsw i64 %15, 200
  %17 = call ptr @ASN1_TIME_set(ptr noundef null, i64 noundef %16)
  store ptr %17, ptr %7, align 8, !tbaa !29
  call void @llvm.lifetime.start.p0(i64 8, ptr %8) #7
  %18 = call ptr @X509_NAME_new()
  store ptr %18, ptr %8, align 8, !tbaa !31
  call void @llvm.lifetime.start.p0(i64 8, ptr %9) #7
  %19 = call ptr @ASN1_BIT_STRING_new()
  store ptr %19, ptr %9, align 8, !tbaa !29
  call void @llvm.lifetime.start.p0(i64 8, ptr %10) #7
  %20 = call ptr @ASN1_INTEGER_new()
  store ptr %20, ptr %10, align 8, !tbaa !29
  %21 = load ptr, ptr %8, align 8, !tbaa !31
  %22 = call i32 @test_ptr(ptr noundef @.str.14, i32 noundef 81, ptr noundef @.str.31, ptr noundef %21)
  %23 = icmp ne i32 %22, 0
  br i1 %23, label %24, label %55

24:                                               ; preds = %0
  %25 = load ptr, ptr %9, align 8, !tbaa !29
  %26 = call i32 @test_ptr(ptr noundef @.str.14, i32 noundef 82, ptr noundef @.str.32, ptr noundef %25)
  %27 = icmp ne i32 %26, 0
  br i1 %27, label %28, label %55

28:                                               ; preds = %24
  %29 = load ptr, ptr %10, align 8, !tbaa !29
  %30 = call i32 @test_ptr(ptr noundef @.str.14, i32 noundef 83, ptr noundef @.str.33, ptr noundef %29)
  %31 = icmp ne i32 %30, 0
  br i1 %31, label %32, label %55

32:                                               ; preds = %28
  %33 = load ptr, ptr %8, align 8, !tbaa !31
  %34 = getelementptr inbounds [20 x i8], ptr %1, i64 0, i64 0
  %35 = call i32 @X509_NAME_add_entry_by_NID(ptr noundef %33, i32 noundef 13, i32 noundef 4097, ptr noundef %34, i32 noundef -1, i32 noundef -1, i32 noundef 1)
  %36 = icmp ne i32 %35, 0
  %37 = zext i1 %36 to i32
  %38 = call i32 @test_true(ptr noundef @.str.14, i32 noundef 86, ptr noundef @.str.34, i32 noundef %37)
  %39 = icmp ne i32 %38, 0
  br i1 %39, label %40, label %55

40:                                               ; preds = %32
  %41 = load ptr, ptr %9, align 8, !tbaa !29
  %42 = getelementptr inbounds [128 x i8], ptr %2, i64 0, i64 0
  %43 = call i32 @ASN1_BIT_STRING_set(ptr noundef %41, ptr noundef %42, i32 noundef 128)
  %44 = icmp ne i32 %43, 0
  %45 = zext i1 %44 to i32
  %46 = call i32 @test_true(ptr noundef @.str.14, i32 noundef 87, ptr noundef @.str.35, i32 noundef %45)
  %47 = icmp ne i32 %46, 0
  br i1 %47, label %48, label %55

48:                                               ; preds = %40
  %49 = load ptr, ptr %10, align 8, !tbaa !29
  %50 = call i32 @ASN1_INTEGER_set_uint64(ptr noundef %49, i64 noundef 1)
  %51 = icmp ne i32 %50, 0
  %52 = zext i1 %51 to i32
  %53 = call i32 @test_true(ptr noundef @.str.14, i32 noundef 88, ptr noundef @.str.36, i32 noundef %52)
  %54 = icmp ne i32 %53, 0
  br i1 %54, label %56, label %55

55:                                               ; preds = %48, %40, %32, %28, %24, %0
  br label %90

56:                                               ; preds = %48
  %57 = call ptr @EVP_sha256()
  %58 = load ptr, ptr %8, align 8, !tbaa !31
  %59 = load ptr, ptr %9, align 8, !tbaa !29
  %60 = load ptr, ptr %10, align 8, !tbaa !29
  %61 = call ptr @OCSP_cert_id_new(ptr noundef %57, ptr noundef %58, ptr noundef %59, ptr noundef %60)
  store ptr %61, ptr %5, align 8, !tbaa !27
  %62 = load ptr, ptr %3, align 8, !tbaa !9
  %63 = call i32 @test_ptr(ptr noundef @.str.14, i32 noundef 91, ptr noundef @.str.21, ptr noundef %62)
  %64 = icmp ne i32 %63, 0
  br i1 %64, label %65, label %87

65:                                               ; preds = %56
  %66 = load ptr, ptr %6, align 8, !tbaa !29
  %67 = call i32 @test_ptr(ptr noundef @.str.14, i32 noundef 92, ptr noundef @.str.37, ptr noundef %66)
  %68 = icmp ne i32 %67, 0
  br i1 %68, label %69, label %87

69:                                               ; preds = %65
  %70 = load ptr, ptr %7, align 8, !tbaa !29
  %71 = call i32 @test_ptr(ptr noundef @.str.14, i32 noundef 93, ptr noundef @.str.38, ptr noundef %70)
  %72 = icmp ne i32 %71, 0
  br i1 %72, label %73, label %87

73:                                               ; preds = %69
  %74 = load ptr, ptr %5, align 8, !tbaa !27
  %75 = call i32 @test_ptr(ptr noundef @.str.14, i32 noundef 94, ptr noundef @.str.39, ptr noundef %74)
  %76 = icmp ne i32 %75, 0
  br i1 %76, label %77, label %87

77:                                               ; preds = %73
  %78 = load ptr, ptr %3, align 8, !tbaa !9
  %79 = load ptr, ptr %5, align 8, !tbaa !27
  %80 = load ptr, ptr %6, align 8, !tbaa !29
  %81 = load ptr, ptr %7, align 8, !tbaa !29
  %82 = call ptr @OCSP_basic_add1_status(ptr noundef %78, ptr noundef %79, i32 noundef 2, i32 noundef 0, ptr noundef null, ptr noundef %80, ptr noundef %81)
  %83 = icmp ne ptr %82, null
  %84 = zext i1 %83 to i32
  %85 = call i32 @test_true(ptr noundef @.str.14, i32 noundef 97, ptr noundef @.str.40, i32 noundef %84)
  %86 = icmp ne i32 %85, 0
  br i1 %86, label %88, label %87

87:                                               ; preds = %77, %73, %69, %65, %56
  br label %90

88:                                               ; preds = %77
  %89 = load ptr, ptr %3, align 8, !tbaa !9
  store ptr %89, ptr %4, align 8, !tbaa !9
  store ptr null, ptr %3, align 8, !tbaa !9
  br label %90

90:                                               ; preds = %88, %87, %55
  %91 = load ptr, ptr %6, align 8, !tbaa !29
  call void @ASN1_TIME_free(ptr noundef %91)
  %92 = load ptr, ptr %7, align 8, !tbaa !29
  call void @ASN1_TIME_free(ptr noundef %92)
  %93 = load ptr, ptr %9, align 8, !tbaa !29
  call void @ASN1_BIT_STRING_free(ptr noundef %93)
  %94 = load ptr, ptr %10, align 8, !tbaa !29
  call void @ASN1_INTEGER_free(ptr noundef %94)
  %95 = load ptr, ptr %5, align 8, !tbaa !27
  call void @OCSP_CERTID_free(ptr noundef %95)
  %96 = load ptr, ptr %3, align 8, !tbaa !9
  call void @OCSP_BASICRESP_free(ptr noundef %96)
  %97 = load ptr, ptr %8, align 8, !tbaa !31
  call void @X509_NAME_free(ptr noundef %97)
  %98 = load ptr, ptr %4, align 8, !tbaa !9
  call void @llvm.lifetime.end.p0(i64 8, ptr %10) #7
  call void @llvm.lifetime.end.p0(i64 8, ptr %9) #7
  call void @llvm.lifetime.end.p0(i64 8, ptr %8) #7
  call void @llvm.lifetime.end.p0(i64 8, ptr %7) #7
  call void @llvm.lifetime.end.p0(i64 8, ptr %6) #7
  call void @llvm.lifetime.end.p0(i64 8, ptr %5) #7
  call void @llvm.lifetime.end.p0(i64 8, ptr %4) #7
  call void @llvm.lifetime.end.p0(i64 8, ptr %3) #7
  call void @llvm.lifetime.end.p0(i64 128, ptr %2) #7
  call void @llvm.lifetime.end.p0(i64 20, ptr %1) #7
  ret ptr %98
}