; Function Attrs: nounwind uwtable
define internal fastcc ptr @make_dummy_resp() unnamed_addr #1 {
  %1 = alloca [20 x i8], align 16
  %2 = alloca [128 x i8], align 16
  call void @llvm.lifetime.start.p0(i64 20, ptr nonnull %1) #7
  call void @llvm.memcpy.p0.p0.i64(ptr noundef nonnull align 16 dereferenceable(20) %1, ptr noundef nonnull align 16 dereferenceable(20) @__const.make_dummy_resp.namestr, i64 20, i1 false)
  call void @llvm.lifetime.start.p0(i64 128, ptr nonnull %2) #7
  call void @llvm.memset.p0.i64(ptr noundef nonnull align 16 dereferenceable(128) %2, i8 0, i64 128, i1 false)
  store i8 7, ptr %2, align 16
  %3 = tail call ptr @OCSP_BASICRESP_new() #7
  %4 = tail call i64 @time(ptr noundef null) #7
  %5 = tail call ptr @ASN1_TIME_set(ptr noundef null, i64 noundef %4) #7
  %6 = tail call i64 @time(ptr noundef null) #7
  %7 = add nsw i64 %6, 200
  %8 = tail call ptr @ASN1_TIME_set(ptr noundef null, i64 noundef %7) #7
  %9 = tail call ptr @X509_NAME_new() #7
  %10 = tail call ptr @ASN1_BIT_STRING_new() #7
  %11 = tail call ptr @ASN1_INTEGER_new() #7
  %12 = tail call i32 @test_ptr(ptr noundef nonnull @.str.14, i32 noundef 81, ptr noundef nonnull @.str.31, ptr noundef %9) #7
  %.not = icmp eq i32 %12, 0
  br i1 %.not, label %47, label %13

13:                                               ; preds = %0
  %14 = tail call i32 @test_ptr(ptr noundef nonnull @.str.14, i32 noundef 82, ptr noundef nonnull @.str.32, ptr noundef %10) #7
  %.not28 = icmp eq i32 %14, 0
  br i1 %.not28, label %47, label %15

15:                                               ; preds = %13
  %16 = tail call i32 @test_ptr(ptr noundef nonnull @.str.14, i32 noundef 83, ptr noundef nonnull @.str.33, ptr noundef %11) #7
  %.not29 = icmp eq i32 %16, 0
  br i1 %.not29, label %47, label %17

17:                                               ; preds = %15
  %18 = call i32 @X509_NAME_add_entry_by_NID(ptr noundef %9, i32 noundef 13, i32 noundef 4097, ptr noundef nonnull %1, i32 noundef -1, i32 noundef -1, i32 noundef 1) #7
  %19 = icmp ne i32 %18, 0
  %20 = zext i1 %19 to i32
  %21 = call i32 @test_true(ptr noundef nonnull @.str.14, i32 noundef 86, ptr noundef nonnull @.str.34, i32 noundef %20) #7
  %.not30 = icmp eq i32 %21, 0
  br i1 %.not30, label %47, label %22

22:                                               ; preds = %17
  %23 = call i32 @ASN1_BIT_STRING_set(ptr noundef %10, ptr noundef nonnull %2, i32 noundef 128) #7
  %24 = icmp ne i32 %23, 0
  %25 = zext i1 %24 to i32
  %26 = call i32 @test_true(ptr noundef nonnull @.str.14, i32 noundef 87, ptr noundef nonnull @.str.35, i32 noundef %25) #7
  %.not31 = icmp eq i32 %26, 0
  br i1 %.not31, label %47, label %27

27:                                               ; preds = %22
  %28 = call i32 @ASN1_INTEGER_set_uint64(ptr noundef %11, i64 noundef 1) #7
  %29 = icmp ne i32 %28, 0
  %30 = zext i1 %29 to i32
  %31 = call i32 @test_true(ptr noundef nonnull @.str.14, i32 noundef 88, ptr noundef nonnull @.str.36, i32 noundef %30) #7
  %.not32 = icmp eq i32 %31, 0
  br i1 %.not32, label %47, label %32

32:                                               ; preds = %27
  %33 = call ptr @EVP_sha256() #7
  %34 = call ptr @OCSP_cert_id_new(ptr noundef %33, ptr noundef %9, ptr noundef %10, ptr noundef %11) #7
  %35 = call i32 @test_ptr(ptr noundef nonnull @.str.14, i32 noundef 91, ptr noundef nonnull @.str.21, ptr noundef %3) #7
  %.not33 = icmp eq i32 %35, 0
  br i1 %.not33, label %47, label %36

36:                                               ; preds = %32
  %37 = call i32 @test_ptr(ptr noundef nonnull @.str.14, i32 noundef 92, ptr noundef nonnull @.str.37, ptr noundef %5) #7
  %.not34 = icmp eq i32 %37, 0
  br i1 %.not34, label %47, label %38

38:                                               ; preds = %36
  %39 = call i32 @test_ptr(ptr noundef nonnull @.str.14, i32 noundef 93, ptr noundef nonnull @.str.38, ptr noundef %8) #7
  %.not35 = icmp eq i32 %39, 0
  br i1 %.not35, label %47, label %40

40:                                               ; preds = %38
  %41 = call i32 @test_ptr(ptr noundef nonnull @.str.14, i32 noundef 94, ptr noundef nonnull @.str.39, ptr noundef %34) #7
  %.not36 = icmp eq i32 %41, 0
  br i1 %.not36, label %47, label %42

42:                                               ; preds = %40
  %43 = call ptr @OCSP_basic_add1_status(ptr noundef %3, ptr noundef %34, i32 noundef 2, i32 noundef 0, ptr noundef null, ptr noundef %5, ptr noundef %8) #7
  %44 = icmp ne ptr %43, null
  %45 = zext i1 %44 to i32
  %46 = call i32 @test_true(ptr noundef nonnull @.str.14, i32 noundef 97, ptr noundef nonnull @.str.40, i32 noundef %45) #7
  %.not37 = icmp eq i32 %46, 0
  %spec.select = select i1 %.not37, ptr null, ptr %3
  %spec.select38 = select i1 %.not37, ptr %3, ptr null
  br label %47

47:                                               ; preds = %42, %32, %36, %38, %40, %0, %13, %15, %17, %22, %27
  %.027 = phi ptr [ %34, %40 ], [ %34, %38 ], [ %34, %36 ], [ %34, %32 ], [ null, %27 ], [ null, %22 ], [ null, %17 ], [ null, %15 ], [ null, %13 ], [ null, %0 ], [ %34, %42 ]
  %.026 = phi ptr [ null, %40 ], [ null, %38 ], [ null, %36 ], [ null, %32 ], [ null, %27 ], [ null, %22 ], [ null, %17 ], [ null, %15 ], [ null, %13 ], [ null, %0 ], [ %spec.select, %42 ]
  %.0 = phi ptr [ %3, %40 ], [ %3, %38 ], [ %3, %36 ], [ %3, %32 ], [ %3, %27 ], [ %3, %22 ], [ %3, %17 ], [ %3, %15 ], [ %3, %13 ], [ %3, %0 ], [ %spec.select38, %42 ]
  call void @ASN1_TIME_free(ptr noundef %5) #7
  call void @ASN1_TIME_free(ptr noundef %8) #7
  call void @ASN1_BIT_STRING_free(ptr noundef %10) #7
  call void @ASN1_INTEGER_free(ptr noundef %11) #7
  call void @OCSP_CERTID_free(ptr noundef %.027) #7
  call void @OCSP_BASICRESP_free(ptr noundef %.0) #7
  call void @X509_NAME_free(ptr noundef %9) #7
  call void @llvm.lifetime.end.p0(i64 128, ptr nonnull %2) #7
  call void @llvm.lifetime.end.p0(i64 20, ptr nonnull %1) #7
  ret ptr %.026
}